target datalayout = "e-m:e-p270:32:32-p271:32:32-p272:64:64-i64:64-i128:128-f80:128-n8:16:32:64-S128"
target triple = "x86_64-pc-linux-gnu"

@sort_by = external global i32, align 4
@sort_order = external global i32, align 4

; Function Attrs: nounwind uwtable
define dso_local void @link_iteration(i64 noundef %0, i32 noundef %1) #0 {
  %3 = alloca i64, align 8
  %4 = alloca i32, align 4
  store i64 %0, ptr %3, align 8, !tbaa !4
  store i32 %1, ptr %4, align 4, !tbaa !11
  %5 = load i32, ptr @sort_by, align 4, !tbaa !11
  %6 = icmp eq i32 %5, 1
  br i1 %6, label %7, label %16

7:                                                ; preds = %2
  %8 = load i32, ptr %4, align 4, !tbaa !11
  %9 = and i32 %8, 1
  %10 = icmp ne i32 %9, 0
  br i1 %10, label %11, label %16

11:                                               ; preds = %7
  %12 = load i64, ptr %3, align 8, !tbaa !4
  %13 = load i32, ptr @sort_by, align 4, !tbaa !11
  %14 = load i32, ptr @sort_order, align 4, !tbaa !11
  %15 = call i32 @H5Literate2(i64 noundef %12, i32 noundef %13, i32 noundef %14, ptr noundef null, ptr noundef @dump_all_cb, ptr noundef null)
  br label %20

16:                                               ; preds = %7, %2
  %17 = load i64, ptr %3, align 8, !tbaa !4
  %18 = load i32, ptr @sort_order, align 4, !tbaa !11
  %19 = call i32 @H5Literate2(i64 noundef %17, i32 noundef 0, i32 noundef %18, ptr noundef null, ptr noundef @dump_all_cb, ptr noundef null)
  br label %20

20:                                               ; preds = %16, %11
  ret void
}