; Function Attrs: nounwind uwtable
define dso_local void @link_iteration(i64 noundef %0, i32 noundef %1) local_unnamed_addr #0 {
  %3 = load i32, ptr @sort_by, align 4, !tbaa !4
  %4 = icmp eq i32 %3, 1
  %5 = and i32 %1, 1
  %.not = icmp ne i32 %5, 0
  %or.cond.not = and i1 %.not, %4
  %6 = load i32, ptr @sort_order, align 4, !tbaa !4
  %. = zext i1 %or.cond.not to i32
  %7 = tail call i32 @H5Literate2(i64 noundef %0, i32 noundef %., i32 noundef %6, ptr noundef null, ptr noundef nonnull @dump_all_cb, ptr noundef null) #15
  ret void
}